; Function Attrs: mustprogress uwtable
define internal noundef ptr @_ZN11opencv_test12_GLOBAL__N_118HDRMertens_factory10CreateTestEv(ptr nocapture nonnull readnone align 8 %0) unnamed_addr #7 align 2 personality ptr @__gxx_personality_v0 {
  %2 = alloca %"class.std::__cxx11::basic_string", align 8
  %3 = alloca %"class.std::allocator", align 1
  %4 = invoke noalias noundef nonnull dereferenceable(256) ptr @_Znwm(i64 noundef 256) #18
          to label %5 unwind label %7

5:                                                ; preds = %1
  invoke void @_ZN4perf8TestBaseC2Ev(ptr noundef nonnull align 8 dereferenceable(248) %4)
          to label %_ZN11opencv_test12_GLOBAL__N_116HDR_Mertens_TestC2Ev.exit unwind label %9

_ZN11opencv_test12_GLOBAL__N_116HDR_Mertens_TestC2Ev.exit: ; preds = %5
  store ptr getelementptr inbounds inrange(-16, 56) (i8, ptr @_ZTVN11opencv_test12_GLOBAL__N_116HDR_Mertens_TestE, i64 16), ptr %4, align 8
  %6 = getelementptr inbounds i8, ptr %4, i64 248
  store i8 0, ptr %6, align 8
  br label %32

7:                                                ; preds = %1
  %8 = landingpad { ptr, i32 }
          catch ptr @_ZTIN6cvtest7details21SkipTestExceptionBaseE
  br label %11

9:                                                ; preds = %5
  %10 = landingpad { ptr, i32 }
          cleanup
          catch ptr @_ZTIN6cvtest7details21SkipTestExceptionBaseE
  tail call void @_ZdlPv(ptr noundef nonnull %4) #17
  br label %11

11:                                               ; preds = %9, %7
  %.pn = phi { ptr, i32 } [ %10, %9 ], [ %8, %7 ]
  %.06 = extractvalue { ptr, i32 } %.pn, 1
  %12 = tail call i32 @llvm.eh.typeid.for.p0(ptr nonnull @_ZTIN6cvtest7details21SkipTestExceptionBaseE) #19
  %13 = icmp eq i32 %.06, %12
  br i1 %13, label %14, label %33

14:                                               ; preds = %11
  %.07 = extractvalue { ptr, i32 } %.pn, 0
  %15 = tail call ptr @__cxa_begin_catch(ptr %.07) #19
  %16 = invoke noalias noundef nonnull dereferenceable(48) ptr @_Znwm(i64 noundef 48) #18
          to label %17 unwind label %24

17:                                               ; preds = %14
  %18 = load ptr, ptr %15, align 8
  %19 = getelementptr inbounds i8, ptr %18, i64 16
  %20 = load ptr, ptr %19, align 8
  %21 = tail call noundef ptr %20(ptr noundef nonnull align 8 dereferenceable(148) %15) #19
  call void @_ZNSaIcEC1Ev(ptr noundef nonnull align 1 dereferenceable(1) %3) #19
  invoke void @_ZNSt7__cxx1112basic_stringIcSt11char_traitsIcESaIcEEC1EPKcRKS3_(ptr noundef nonnull align 8 dereferenceable(32) %2, ptr noundef %21, ptr noundef nonnull align 1 dereferenceable(1) %3)
          to label %22 unwind label %26

22:                                               ; preds = %17
  invoke void @_ZN12SkipThisTestC2ERKNSt7__cxx1112basic_stringIcSt11char_traitsIcESaIcEEE(ptr noundef nonnull align 8 dereferenceable(48) %16, ptr noundef nonnull align 8 dereferenceable(32) %2)
          to label %23 unwind label %28

23:                                               ; preds = %22
  call void @_ZNSt7__cxx1112basic_stringIcSt11char_traitsIcESaIcEED1Ev(ptr noundef nonnull align 8 dereferenceable(32) %2) #19
  call void @_ZNSaIcED1Ev(ptr noundef nonnull align 1 dereferenceable(1) %3) #19
  call void @__cxa_end_catch()
  br label %32

24:                                               ; preds = %14
  %25 = landingpad { ptr, i32 }
          cleanup
  br label %31

26:                                               ; preds = %17
  %27 = landingpad { ptr, i32 }
          cleanup
  br label %30

28:                                               ; preds = %22
  %29 = landingpad { ptr, i32 }
          cleanup
  call void @_ZNSt7__cxx1112basic_stringIcSt11char_traitsIcESaIcEED1Ev(ptr noundef nonnull align 8 dereferenceable(32) %2) #19
  br label %30

30:                                               ; preds = %28, %26
  %.pn12 = phi { ptr, i32 } [ %29, %28 ], [ %27, %26 ]
  call void @_ZNSaIcED1Ev(ptr noundef nonnull align 1 dereferenceable(1) %3) #19
  call void @_ZdlPv(ptr noundef nonnull %16) #17
  br label %31

31:                                               ; preds = %30, %24
  %.pn12.pn = phi { ptr, i32 } [ %.pn12, %30 ], [ %25, %24 ]
  invoke void @__cxa_end_catch()
          to label %33 unwind label %34

32:                                               ; preds = %_ZN11opencv_test12_GLOBAL__N_116HDR_Mertens_TestC2Ev.exit, %23
  %.0 = phi ptr [ %16, %23 ], [ %4, %_ZN11opencv_test12_GLOBAL__N_116HDR_Mertens_TestC2Ev.exit ]
  ret ptr %.0

33:                                               ; preds = %31, %11
  %.merged = phi { ptr, i32 } [ %.pn12.pn, %31 ], [ %.pn, %11 ]
  resume { ptr, i32 } %.merged

34:                                               ; preds = %31
  %35 = landingpad { ptr, i32 }
          catch ptr null
  %36 = extractvalue { ptr, i32 } %35, 0
  call void @__clang_call_terminate(ptr %36) #20
  unreachable
}